GAS LISTING /tmp/cciFaveB.s 			page 1


   1              		.file	"main.c"
   2              		.text
   3              	.Ltext0:
   4              		.section	.text.printf_mcu_msg_str,"ax",@progbits
   5              		.globl	printf_mcu_msg_str
   7              	printf_mcu_msg_str:
   8              	.LFB57:
   9              		.file 1 "src/main.c"
   1:src/main.c    **** /**
   2:src/main.c    ****  * @file main.c
   3:src/main.c    ****  * @author Istvan Milak (istvan.milak@gmail.com)
   4:src/main.c    ****  * @brief 
   5:src/main.c    ****  * @version 0.1
   6:src/main.c    ****  * @date 2019-12-15
   7:src/main.c    ****  * 
   8:src/main.c    ****  * @copyright Copyright (c) 2019
   9:src/main.c    ****  * 
  10:src/main.c    ****  */
  11:src/main.c    **** 
  12:src/main.c    **** #include <stdio.h>
  13:src/main.c    **** #include <stdlib.h>
  14:src/main.c    **** #include <string.h>
  15:src/main.c    **** #include <time.h>
  16:src/main.c    **** #include "mcu_msg.h"
  17:src/main.c    **** 
  18:src/main.c    **** /*string printer on i386*/
  19:src/main.c    **** void printf_mcu_msg_str(mcu_msg_string_t str);
  20:src/main.c    **** 
  21:src/main.c    **** const char *test_str1 = "#test_msg{<CMD1>\t\t @obj1($key11 =\t-1123334567  ; $key12 = 'string \"val
  22:src/main.c    **** \r@obj2  ($key21 =   -1.123456789; $key22   = 'val22'; $key23 = 1000; $key24 = 12.34)<CMD_last>}";
  23:src/main.c    **** 
  24:src/main.c    **** 
  25:src/main.c    **** int main()
  26:src/main.c    **** {
  27:src/main.c    ****     /*start the clock*/
  28:src/main.c    ****     clock_t begin = clock();
  29:src/main.c    ****     clock_t end;
  30:src/main.c    ****     double exec_time = 0.0;
  31:src/main.c    **** 
  32:src/main.c    ****     mcu_msg_t msg;
  33:src/main.c    ****     mcu_msg_obj_t obj1, obj2;
  34:src/main.c    ****     mcu_msg_string_hnd_t str_hnd = mcu_msg_string_hnd_create(printf_mcu_msg_str);
  35:src/main.c    **** 
  36:src/main.c    ****     printf("TEST mcu-msg-parser\n");
  37:src/main.c    ****     printf("-------------------\n");
  38:src/main.c    **** 
  39:src/main.c    ****     printf("test_str1 = \"%s\"\n\n", test_str1);
  40:src/main.c    **** 
  41:src/main.c    ****     //#############################################################################################
  42:src/main.c    ****     printf(">> getting test_msg...\n");
  43:src/main.c    ****     msg = mcu_msg_get(test_str1, "test_msg", strlen(test_str1));
  44:src/main.c    ****     if(msg.content.s != NULL) {
  45:src/main.c    ****         printf("msg.id_len: %d msg.content_len: %d\n", msg.id.len, msg.content.len);
  46:src/main.c    ****         str_hnd.print(msg.id);
  47:src/main.c    ****         printf(":");
  48:src/main.c    ****         str_hnd.print(msg.content);
  49:src/main.c    ****         printf("\n\n");
GAS LISTING /tmp/cciFaveB.s 			page 2


  50:src/main.c    ****     } else {
  51:src/main.c    ****         printf("message not found!\n\n");
  52:src/main.c    ****     }
  53:src/main.c    **** 
  54:src/main.c    ****     //#############################################################################################
  55:src/main.c    ****     printf(">> getting CMD1 cmd...\n");
  56:src/main.c    ****     printf("%s\n\n", mcu_msg_is_cmd_att(msg, "CMD1") ? "True" : "False");
  57:src/main.c    **** 
  58:src/main.c    ****     printf(">> getting CMD2 cmd...\n");
  59:src/main.c    ****     printf("%s\n\n", mcu_msg_is_cmd_att(msg, "CMD2") ? "True" : "False");
  60:src/main.c    **** 
  61:src/main.c    ****     printf(">> getting CMD_last cmd...\n");
  62:src/main.c    ****     printf("%s\n\n", mcu_msg_is_cmd_att(msg, "CMD_last") ? "True" : "False");
  63:src/main.c    **** 
  64:src/main.c    ****     //#############################################################################################
  65:src/main.c    ****     printf(">> getting obj1...\n");
  66:src/main.c    ****     obj1 = mcu_msg_parser_get_obj(msg, "obj1");
  67:src/main.c    ****     printf("obj1.id_len: %d obj1.content_len: %d\n", obj1.id.len, obj1.content.len);
  68:src/main.c    ****     str_hnd.print(obj1.id); printf(":"); str_hnd.print(obj1.content);
  69:src/main.c    ****     printf("\n\n");
  70:src/main.c    **** 
  71:src/main.c    ****     //#############################################################################################
  72:src/main.c    ****     printf(">> getting obj2...\n");
  73:src/main.c    ****     obj2 = mcu_msg_parser_get_obj(msg, "obj2");
  74:src/main.c    ****     printf("obj2.id_len: %d obj2.content_len: %d\n", obj2.id.len, obj2.content.len);
  75:src/main.c    ****     str_hnd.print(obj2.id); printf(":"); str_hnd.print(obj2.content);
  76:src/main.c    ****     printf("\n\n");
  77:src/main.c    ****     
  78:src/main.c    ****     //#############################################################################################
  79:src/main.c    ****     printf(">> getting obj1->key11 intiger...\n");
  80:src/main.c    ****     int ival = 0, res;
  81:src/main.c    ****     float fval = 0.0;
  82:src/main.c    ****     res = mcu_msg_parser_get_int(&ival, obj1, "key11");
  83:src/main.c    ****     printf("r = %d ival = %d\n\n", res, ival);
  84:src/main.c    ****     
  85:src/main.c    ****     //#############################################################################################
  86:src/main.c    ****     printf(">> getting obj2->key21 float...\n");
  87:src/main.c    ****     res = mcu_msg_parser_get_float(&fval, obj2, "key21");
  88:src/main.c    ****     printf("r = %d fval = %.11f\n\n", res, fval);
  89:src/main.c    **** 
  90:src/main.c    ****     //#############################################################################################
  91:src/main.c    ****     printf(">> getting obj1->key12 string...\n");
  92:src/main.c    ****     mcu_msg_string_t str = mcu_msg_parser_get_string(obj1, "key12");
  93:src/main.c    ****     if(str.s != NULL) {
  94:src/main.c    ****         str_hnd.print(str); printf("\n\n");
  95:src/main.c    ****     } else {
  96:src/main.c    ****         printf("error getting string\n\n");
  97:src/main.c    ****     }
  98:src/main.c    ****     
  99:src/main.c    ****     end = clock();
 100:src/main.c    **** 
 101:src/main.c    ****     exec_time = (double)(end - begin) / CLOCKS_PER_SEC;
 102:src/main.c    **** 
 103:src/main.c    ****     printf("Execution time: %f s\n", exec_time);
 104:src/main.c    ****     return 0;
 105:src/main.c    **** }
 106:src/main.c    **** 
GAS LISTING /tmp/cciFaveB.s 			page 3


 107:src/main.c    **** void printf_mcu_msg_str(mcu_msg_string_t str)
 108:src/main.c    **** {
  10              		.loc 1 108 0
  11              		.cfi_startproc
  12              	.LVL0:
  13 0000 4154     		pushq	%r12
  14              	.LCFI0:
  15              		.cfi_def_cfa_offset 16
  16              		.cfi_offset 12, -16
  17 0002 55       		pushq	%rbp
  18              	.LCFI1:
  19              		.cfi_def_cfa_offset 24
  20              		.cfi_offset 6, -24
  21 0003 53       		pushq	%rbx
  22              	.LCFI2:
  23              		.cfi_def_cfa_offset 32
  24              		.cfi_offset 3, -32
  25 0004 4989FC   		movq	%rdi, %r12
  26 0007 4889F5   		movq	%rsi, %rbp
  27              	.LVL1:
 109:src/main.c    ****     mcu_msg_size_t i;
 110:src/main.c    ****     for(i = 0; i < str.len; printf("%c", *(str.s + i++)));
  28              		.loc 1 110 0
  29 000a B8000000 		movl	$0, %eax
  29      00
  30 000f EB12     		jmp	.L2
  31              	.LVL2:
  32              	.L3:
  33              		.loc 1 110 0 is_stmt 0 discriminator 3
  34 0011 8D5801   		leal	1(%rax), %ebx
  35              	.LVL3:
  36 0014 0FB7C0   		movzwl	%ax, %eax
  37 0017 410FBE3C 		movsbl	(%r12,%rax), %edi
  37      04
  38              	.LVL4:
  39              	.LBB64:
  40              	.LBB65:
  41              		.file 2 "/usr/include/x86_64-linux-gnu/bits/stdio2.h"
   1:/usr/include/x86_64-linux-gnu/bits/stdio2.h **** /* Checking macros for stdio functions.
   2:/usr/include/x86_64-linux-gnu/bits/stdio2.h ****    Copyright (C) 2004-2018 Free Software Foundation, Inc.
   3:/usr/include/x86_64-linux-gnu/bits/stdio2.h ****    This file is part of the GNU C Library.
   4:/usr/include/x86_64-linux-gnu/bits/stdio2.h **** 
   5:/usr/include/x86_64-linux-gnu/bits/stdio2.h ****    The GNU C Library is free software; you can redistribute it and/or
   6:/usr/include/x86_64-linux-gnu/bits/stdio2.h ****    modify it under the terms of the GNU Lesser General Public
   7:/usr/include/x86_64-linux-gnu/bits/stdio2.h ****    License as published by the Free Software Foundation; either
   8:/usr/include/x86_64-linux-gnu/bits/stdio2.h ****    version 2.1 of the License, or (at your option) any later version.
   9:/usr/include/x86_64-linux-gnu/bits/stdio2.h **** 
  10:/usr/include/x86_64-linux-gnu/bits/stdio2.h ****    The GNU C Library is distributed in the hope that it will be useful,
  11:/usr/include/x86_64-linux-gnu/bits/stdio2.h ****    but WITHOUT ANY WARRANTY; without even the implied warranty of
  12:/usr/include/x86_64-linux-gnu/bits/stdio2.h ****    MERCHANTABILITY or FITNESS FOR A PARTICULAR PURPOSE.  See the GNU
  13:/usr/include/x86_64-linux-gnu/bits/stdio2.h ****    Lesser General Public License for more details.
  14:/usr/include/x86_64-linux-gnu/bits/stdio2.h **** 
  15:/usr/include/x86_64-linux-gnu/bits/stdio2.h ****    You should have received a copy of the GNU Lesser General Public
  16:/usr/include/x86_64-linux-gnu/bits/stdio2.h ****    License along with the GNU C Library; if not, see
  17:/usr/include/x86_64-linux-gnu/bits/stdio2.h ****    <http://www.gnu.org/licenses/>.  */
  18:/usr/include/x86_64-linux-gnu/bits/stdio2.h **** 
  19:/usr/include/x86_64-linux-gnu/bits/stdio2.h **** #ifndef _STDIO_H
GAS LISTING /tmp/cciFaveB.s 			page 4


  20:/usr/include/x86_64-linux-gnu/bits/stdio2.h **** # error "Never include <bits/stdio2.h> directly; use <stdio.h> instead."
  21:/usr/include/x86_64-linux-gnu/bits/stdio2.h **** #endif
  22:/usr/include/x86_64-linux-gnu/bits/stdio2.h **** 
  23:/usr/include/x86_64-linux-gnu/bits/stdio2.h **** extern int __sprintf_chk (char *__restrict __s, int __flag, size_t __slen,
  24:/usr/include/x86_64-linux-gnu/bits/stdio2.h **** 			  const char *__restrict __format, ...) __THROW;
  25:/usr/include/x86_64-linux-gnu/bits/stdio2.h **** extern int __vsprintf_chk (char *__restrict __s, int __flag, size_t __slen,
  26:/usr/include/x86_64-linux-gnu/bits/stdio2.h **** 			   const char *__restrict __format,
  27:/usr/include/x86_64-linux-gnu/bits/stdio2.h **** 			   _G_va_list __ap) __THROW;
  28:/usr/include/x86_64-linux-gnu/bits/stdio2.h **** 
  29:/usr/include/x86_64-linux-gnu/bits/stdio2.h **** #ifdef __va_arg_pack
  30:/usr/include/x86_64-linux-gnu/bits/stdio2.h **** __fortify_function int
  31:/usr/include/x86_64-linux-gnu/bits/stdio2.h **** __NTH (sprintf (char *__restrict __s, const char *__restrict __fmt, ...))
  32:/usr/include/x86_64-linux-gnu/bits/stdio2.h **** {
  33:/usr/include/x86_64-linux-gnu/bits/stdio2.h ****   return __builtin___sprintf_chk (__s, __USE_FORTIFY_LEVEL - 1,
  34:/usr/include/x86_64-linux-gnu/bits/stdio2.h **** 				  __bos (__s), __fmt, __va_arg_pack ());
  35:/usr/include/x86_64-linux-gnu/bits/stdio2.h **** }
  36:/usr/include/x86_64-linux-gnu/bits/stdio2.h **** #elif !defined __cplusplus
  37:/usr/include/x86_64-linux-gnu/bits/stdio2.h **** # define sprintf(str, ...) \
  38:/usr/include/x86_64-linux-gnu/bits/stdio2.h ****   __builtin___sprintf_chk (str, __USE_FORTIFY_LEVEL - 1, __bos (str), \
  39:/usr/include/x86_64-linux-gnu/bits/stdio2.h **** 			   __VA_ARGS__)
  40:/usr/include/x86_64-linux-gnu/bits/stdio2.h **** #endif
  41:/usr/include/x86_64-linux-gnu/bits/stdio2.h **** 
  42:/usr/include/x86_64-linux-gnu/bits/stdio2.h **** __fortify_function int
  43:/usr/include/x86_64-linux-gnu/bits/stdio2.h **** __NTH (vsprintf (char *__restrict __s, const char *__restrict __fmt,
  44:/usr/include/x86_64-linux-gnu/bits/stdio2.h **** 		 _G_va_list __ap))
  45:/usr/include/x86_64-linux-gnu/bits/stdio2.h **** {
  46:/usr/include/x86_64-linux-gnu/bits/stdio2.h ****   return __builtin___vsprintf_chk (__s, __USE_FORTIFY_LEVEL - 1,
  47:/usr/include/x86_64-linux-gnu/bits/stdio2.h **** 				   __bos (__s), __fmt, __ap);
  48:/usr/include/x86_64-linux-gnu/bits/stdio2.h **** }
  49:/usr/include/x86_64-linux-gnu/bits/stdio2.h **** 
  50:/usr/include/x86_64-linux-gnu/bits/stdio2.h **** #if defined __USE_ISOC99 || defined __USE_UNIX98
  51:/usr/include/x86_64-linux-gnu/bits/stdio2.h **** 
  52:/usr/include/x86_64-linux-gnu/bits/stdio2.h **** extern int __snprintf_chk (char *__restrict __s, size_t __n, int __flag,
  53:/usr/include/x86_64-linux-gnu/bits/stdio2.h **** 			   size_t __slen, const char *__restrict __format,
  54:/usr/include/x86_64-linux-gnu/bits/stdio2.h **** 			   ...) __THROW;
  55:/usr/include/x86_64-linux-gnu/bits/stdio2.h **** extern int __vsnprintf_chk (char *__restrict __s, size_t __n, int __flag,
  56:/usr/include/x86_64-linux-gnu/bits/stdio2.h **** 			    size_t __slen, const char *__restrict __format,
  57:/usr/include/x86_64-linux-gnu/bits/stdio2.h **** 			    _G_va_list __ap) __THROW;
  58:/usr/include/x86_64-linux-gnu/bits/stdio2.h **** 
  59:/usr/include/x86_64-linux-gnu/bits/stdio2.h **** # ifdef __va_arg_pack
  60:/usr/include/x86_64-linux-gnu/bits/stdio2.h **** __fortify_function int
  61:/usr/include/x86_64-linux-gnu/bits/stdio2.h **** __NTH (snprintf (char *__restrict __s, size_t __n,
  62:/usr/include/x86_64-linux-gnu/bits/stdio2.h **** 		 const char *__restrict __fmt, ...))
  63:/usr/include/x86_64-linux-gnu/bits/stdio2.h **** {
  64:/usr/include/x86_64-linux-gnu/bits/stdio2.h ****   return __builtin___snprintf_chk (__s, __n, __USE_FORTIFY_LEVEL - 1,
  65:/usr/include/x86_64-linux-gnu/bits/stdio2.h **** 				   __bos (__s), __fmt, __va_arg_pack ());
  66:/usr/include/x86_64-linux-gnu/bits/stdio2.h **** }
  67:/usr/include/x86_64-linux-gnu/bits/stdio2.h **** # elif !defined __cplusplus
  68:/usr/include/x86_64-linux-gnu/bits/stdio2.h **** #  define snprintf(str, len, ...) \
  69:/usr/include/x86_64-linux-gnu/bits/stdio2.h ****   __builtin___snprintf_chk (str, len, __USE_FORTIFY_LEVEL - 1, __bos (str), \
  70:/usr/include/x86_64-linux-gnu/bits/stdio2.h **** 			    __VA_ARGS__)
  71:/usr/include/x86_64-linux-gnu/bits/stdio2.h **** # endif
  72:/usr/include/x86_64-linux-gnu/bits/stdio2.h **** 
  73:/usr/include/x86_64-linux-gnu/bits/stdio2.h **** __fortify_function int
  74:/usr/include/x86_64-linux-gnu/bits/stdio2.h **** __NTH (vsnprintf (char *__restrict __s, size_t __n,
  75:/usr/include/x86_64-linux-gnu/bits/stdio2.h **** 		  const char *__restrict __fmt, _G_va_list __ap))
  76:/usr/include/x86_64-linux-gnu/bits/stdio2.h **** {
GAS LISTING /tmp/cciFaveB.s 			page 5


  77:/usr/include/x86_64-linux-gnu/bits/stdio2.h ****   return __builtin___vsnprintf_chk (__s, __n, __USE_FORTIFY_LEVEL - 1,
  78:/usr/include/x86_64-linux-gnu/bits/stdio2.h **** 				    __bos (__s), __fmt, __ap);
  79:/usr/include/x86_64-linux-gnu/bits/stdio2.h **** }
  80:/usr/include/x86_64-linux-gnu/bits/stdio2.h **** 
  81:/usr/include/x86_64-linux-gnu/bits/stdio2.h **** #endif
  82:/usr/include/x86_64-linux-gnu/bits/stdio2.h **** 
  83:/usr/include/x86_64-linux-gnu/bits/stdio2.h **** #if __USE_FORTIFY_LEVEL > 1
  84:/usr/include/x86_64-linux-gnu/bits/stdio2.h **** 
  85:/usr/include/x86_64-linux-gnu/bits/stdio2.h **** extern int __fprintf_chk (FILE *__restrict __stream, int __flag,
  86:/usr/include/x86_64-linux-gnu/bits/stdio2.h **** 			  const char *__restrict __format, ...);
  87:/usr/include/x86_64-linux-gnu/bits/stdio2.h **** extern int __printf_chk (int __flag, const char *__restrict __format, ...);
  88:/usr/include/x86_64-linux-gnu/bits/stdio2.h **** extern int __vfprintf_chk (FILE *__restrict __stream, int __flag,
  89:/usr/include/x86_64-linux-gnu/bits/stdio2.h **** 			   const char *__restrict __format, _G_va_list __ap);
  90:/usr/include/x86_64-linux-gnu/bits/stdio2.h **** extern int __vprintf_chk (int __flag, const char *__restrict __format,
  91:/usr/include/x86_64-linux-gnu/bits/stdio2.h **** 			  _G_va_list __ap);
  92:/usr/include/x86_64-linux-gnu/bits/stdio2.h **** 
  93:/usr/include/x86_64-linux-gnu/bits/stdio2.h **** # ifdef __va_arg_pack
  94:/usr/include/x86_64-linux-gnu/bits/stdio2.h **** __fortify_function int
  95:/usr/include/x86_64-linux-gnu/bits/stdio2.h **** fprintf (FILE *__restrict __stream, const char *__restrict __fmt, ...)
  96:/usr/include/x86_64-linux-gnu/bits/stdio2.h **** {
  97:/usr/include/x86_64-linux-gnu/bits/stdio2.h ****   return __fprintf_chk (__stream, __USE_FORTIFY_LEVEL - 1, __fmt,
  98:/usr/include/x86_64-linux-gnu/bits/stdio2.h **** 			__va_arg_pack ());
  99:/usr/include/x86_64-linux-gnu/bits/stdio2.h **** }
 100:/usr/include/x86_64-linux-gnu/bits/stdio2.h **** 
 101:/usr/include/x86_64-linux-gnu/bits/stdio2.h **** __fortify_function int
 102:/usr/include/x86_64-linux-gnu/bits/stdio2.h **** printf (const char *__restrict __fmt, ...)
 103:/usr/include/x86_64-linux-gnu/bits/stdio2.h **** {
 104:/usr/include/x86_64-linux-gnu/bits/stdio2.h ****   return __printf_chk (__USE_FORTIFY_LEVEL - 1, __fmt, __va_arg_pack ());
  42              		.loc 2 104 0 is_stmt 1 discriminator 3
  43 001c E8000000 		call	putchar@PLT
  43      00
  44              	.LVL5:
  45              	.LBE65:
  46              	.LBE64:
  47              		.loc 1 110 0 discriminator 3
  48 0021 89D8     		movl	%ebx, %eax
  49              	.LVL6:
  50              	.L2:
  51              		.loc 1 110 0 is_stmt 0 discriminator 1
  52 0023 6639C5   		cmpw	%ax, %bp
  53 0026 77E9     		ja	.L3
 111:src/main.c    **** }
  54              		.loc 1 111 0 is_stmt 1
  55 0028 5B       		popq	%rbx
  56              	.LCFI3:
  57              		.cfi_def_cfa_offset 24
  58 0029 5D       		popq	%rbp
  59              	.LCFI4:
  60              		.cfi_def_cfa_offset 16
  61 002a 415C     		popq	%r12
  62              	.LCFI5:
  63              		.cfi_def_cfa_offset 8
  64 002c C3       		ret
  65              		.cfi_endproc
  66              	.LFE57:
  68              		.section	.rodata.main.str1.1,"aMS",@progbits,1
  69              	.LC0:
GAS LISTING /tmp/cciFaveB.s 			page 6


  70 0000 54727565 		.string	"True"
  70      00
  71              	.LC1:
  72 0005 46616C73 		.string	"False"
  72      6500
  73              	.LC2:
  74 000b 54455354 		.string	"TEST mcu-msg-parser"
  74      206D6375 
  74      2D6D7367 
  74      2D706172 
  74      73657200 
  75              	.LC3:
  76 001f 2D2D2D2D 		.string	"-------------------"
  76      2D2D2D2D 
  76      2D2D2D2D 
  76      2D2D2D2D 
  76      2D2D2D00 
  77              	.LC4:
  78 0033 74657374 		.string	"test_str1 = \"%s\"\n\n"
  78      5F737472 
  78      31203D20 
  78      22257322 
  78      0A0A00
  79              	.LC5:
  80 0046 3E3E2067 		.string	">> getting test_msg..."
  80      65747469 
  80      6E672074 
  80      6573745F 
  80      6D73672E 
  81              	.LC6:
  82 005d 74657374 		.string	"test_msg"
  82      5F6D7367 
  82      00
  83              		.section	.rodata.main.str1.8,"aMS",@progbits,1
  84              		.align 8
  85              	.LC7:
  86 0000 6D73672E 		.string	"msg.id_len: %d msg.content_len: %d\n"
  86      69645F6C 
  86      656E3A20 
  86      2564206D 
  86      73672E63 
  87              		.section	.rodata.main.str1.1
  88              	.LC8:
  89 0066 0A00     		.string	"\n"
  90              	.LC9:
  91 0068 6D657373 		.string	"message not found!\n"
  91      61676520 
  91      6E6F7420 
  91      666F756E 
  91      64210A00 
  92              	.LC10:
  93 007c 3E3E2067 		.string	">> getting CMD1 cmd..."
  93      65747469 
  93      6E672043 
  93      4D443120 
  93      636D642E 
  94              	.LC11:
GAS LISTING /tmp/cciFaveB.s 			page 7


  95 0093 434D4431 		.string	"CMD1"
  95      00
  96              	.LC12:
  97 0098 25730A0A 		.string	"%s\n\n"
  97      00
  98              	.LC13:
  99 009d 3E3E2067 		.string	">> getting CMD2 cmd..."
  99      65747469 
  99      6E672043 
  99      4D443220 
  99      636D642E 
 100              	.LC14:
 101 00b4 434D4432 		.string	"CMD2"
 101      00
 102              	.LC15:
 103 00b9 3E3E2067 		.string	">> getting CMD_last cmd..."
 103      65747469 
 103      6E672043 
 103      4D445F6C 
 103      61737420 
 104              	.LC16:
 105 00d4 434D445F 		.string	"CMD_last"
 105      6C617374 
 105      00
 106              	.LC17:
 107 00dd 3E3E2067 		.string	">> getting obj1..."
 107      65747469 
 107      6E67206F 
 107      626A312E 
 107      2E2E00
 108              	.LC18:
 109 00f0 6F626A31 		.string	"obj1"
 109      00
 110              		.section	.rodata.main.str1.8
 111 0024 00000000 		.align 8
 112              	.LC19:
 113 0028 6F626A31 		.string	"obj1.id_len: %d obj1.content_len: %d\n"
 113      2E69645F 
 113      6C656E3A 
 113      20256420 
 113      6F626A31 
 114              		.section	.rodata.main.str1.1
 115              	.LC20:
 116 00f5 3E3E2067 		.string	">> getting obj2..."
 116      65747469 
 116      6E67206F 
 116      626A322E 
 116      2E2E00
 117              	.LC21:
 118 0108 6F626A32 		.string	"obj2"
 118      00
 119              		.section	.rodata.main.str1.8
 120 004e 0000     		.align 8
 121              	.LC22:
 122 0050 6F626A32 		.string	"obj2.id_len: %d obj2.content_len: %d\n"
 122      2E69645F 
 122      6C656E3A 
GAS LISTING /tmp/cciFaveB.s 			page 8


 122      20256420 
 122      6F626A32 
 123 0076 0000     		.align 8
 124              	.LC23:
 125 0078 3E3E2067 		.string	">> getting obj1->key11 intiger..."
 125      65747469 
 125      6E67206F 
 125      626A312D 
 125      3E6B6579 
 126              		.section	.rodata.main.str1.1
 127              	.LC25:
 128 010d 6B657931 		.string	"key11"
 128      3100
 129              	.LC26:
 130 0113 72203D20 		.string	"r = %d ival = %d\n\n"
 130      25642069 
 130      76616C20 
 130      3D202564 
 130      0A0A00
 131              		.section	.rodata.main.str1.8
 132 009a 00000000 		.align 8
 132      0000
 133              	.LC27:
 134 00a0 3E3E2067 		.string	">> getting obj2->key21 float..."
 134      65747469 
 134      6E67206F 
 134      626A322D 
 134      3E6B6579 
 135              		.section	.rodata.main.str1.1
 136              	.LC28:
 137 0126 6B657932 		.string	"key21"
 137      3100
 138              	.LC29:
 139 012c 72203D20 		.string	"r = %d fval = %.11f\n\n"
 139      25642066 
 139      76616C20 
 139      3D20252E 
 139      3131660A 
 140              		.section	.rodata.main.str1.8
 141              		.align 8
 142              	.LC30:
 143 00c0 3E3E2067 		.string	">> getting obj1->key12 string..."
 143      65747469 
 143      6E67206F 
 143      626A312D 
 143      3E6B6579 
 144              		.section	.rodata.main.str1.1
 145              	.LC31:
 146 0142 6B657931 		.string	"key12"
 146      3200
 147              	.LC32:
 148 0148 6572726F 		.string	"error getting string\n"
 148      72206765 
 148      7474696E 
 148      67207374 
 148      72696E67 
 149              	.LC34:
GAS LISTING /tmp/cciFaveB.s 			page 9


 150 015e 45786563 		.string	"Execution time: %f s\n"
 150      7574696F 
 150      6E207469 
 150      6D653A20 
 150      25662073 
 151              		.section	.text.main,"ax",@progbits
 152              		.globl	main
 154              	main:
 155              	.LFB56:
  26:src/main.c    ****     /*start the clock*/
 156              		.loc 1 26 0
 157              		.cfi_startproc
 158 0000 55       		pushq	%rbp
 159              	.LCFI6:
 160              		.cfi_def_cfa_offset 16
 161              		.cfi_offset 6, -16
 162 0001 53       		pushq	%rbx
 163              	.LCFI7:
 164              		.cfi_def_cfa_offset 24
 165              		.cfi_offset 3, -24
 166 0002 4881ECA8 		subq	$168, %rsp
 166      000000
 167              	.LCFI8:
 168              		.cfi_def_cfa_offset 192
  26:src/main.c    ****     /*start the clock*/
 169              		.loc 1 26 0
 170 0009 64488B04 		movq	%fs:40, %rax
 170      25280000 
 170      00
 171 0012 48898424 		movq	%rax, 152(%rsp)
 171      98000000 
 172 001a 31C0     		xorl	%eax, %eax
  28:src/main.c    ****     clock_t end;
 173              		.loc 1 28 0
 174 001c E8000000 		call	clock@PLT
 174      00
 175              	.LVL7:
 176 0021 4889C3   		movq	%rax, %rbx
 177              	.LVL8:
  34:src/main.c    **** 
 178              		.loc 1 34 0
 179 0024 488D7C24 		leaq	16(%rsp), %rdi
 179      10
 180 0029 488D3500 		leaq	printf_mcu_msg_str(%rip), %rsi
 180      000000
 181 0030 E8000000 		call	mcu_msg_string_hnd_create@PLT
 181      00
 182              	.LVL9:
 183              	.LBB66:
 184              	.LBB67:
 185              		.loc 2 104 0
 186 0035 488D3D00 		leaq	.LC2(%rip), %rdi
 186      000000
 187 003c E8000000 		call	puts@PLT
 187      00
 188              	.LVL10:
 189              	.LBE67:
GAS LISTING /tmp/cciFaveB.s 			page 10


 190              	.LBE66:
 191              	.LBB68:
 192              	.LBB69:
 193 0041 488D3D00 		leaq	.LC3(%rip), %rdi
 193      000000
 194 0048 E8000000 		call	puts@PLT
 194      00
 195              	.LVL11:
 196              	.LBE69:
 197              	.LBE68:
 198              	.LBB70:
 199              	.LBB71:
 200 004d 488B1500 		movq	test_str1(%rip), %rdx
 200      000000
 201 0054 488D3500 		leaq	.LC4(%rip), %rsi
 201      000000
 202 005b BF010000 		movl	$1, %edi
 202      00
 203 0060 B8000000 		movl	$0, %eax
 203      00
 204 0065 E8000000 		call	__printf_chk@PLT
 204      00
 205              	.LVL12:
 206              	.LBE71:
 207              	.LBE70:
 208              	.LBB72:
 209              	.LBB73:
 210 006a 488D3D00 		leaq	.LC5(%rip), %rdi
 210      000000
 211 0071 E8000000 		call	puts@PLT
 211      00
 212              	.LVL13:
 213              	.LBE73:
 214              	.LBE72:
  43:src/main.c    ****     if(msg.content.s != NULL) {
 215              		.loc 1 43 0
 216 0076 488B3500 		movq	test_str1(%rip), %rsi
 216      000000
 217 007d 48C7C1FF 		movq	$-1, %rcx
 217      FFFFFF
 218 0084 B8000000 		movl	$0, %eax
 218      00
 219 0089 4889F7   		movq	%rsi, %rdi
 220 008c F2AE     		repnz scasb
 221 008e 48F7D1   		notq	%rcx
 222 0091 4883E901 		subq	$1, %rcx
 223 0095 0FB7C9   		movzwl	%cx, %ecx
 224 0098 488D7C24 		leaq	48(%rsp), %rdi
 224      30
 225 009d 488D1500 		leaq	.LC6(%rip), %rdx
 225      000000
 226 00a4 E8000000 		call	mcu_msg_get@PLT
 226      00
 227              	.LVL14:
  44:src/main.c    ****         printf("msg.id_len: %d msg.content_len: %d\n", msg.id.len, msg.content.len);
 228              		.loc 1 44 0
 229 00a9 48837C24 		cmpq	$0, 64(%rsp)
GAS LISTING /tmp/cciFaveB.s 			page 11


 229      4000
 230 00af 0F84B003 		je	.L6
 230      0000
  45:src/main.c    ****         str_hnd.print(msg.id);
 231              		.loc 1 45 0
 232 00b5 0FB74C24 		movzwl	72(%rsp), %ecx
 232      48
 233 00ba 0FB75424 		movzwl	56(%rsp), %edx
 233      38
 234              	.LVL15:
 235              	.LBB74:
 236              	.LBB75:
 237              		.loc 2 104 0
 238 00bf 488D3500 		leaq	.LC7(%rip), %rsi
 238      000000
 239 00c6 BF010000 		movl	$1, %edi
 239      00
 240 00cb B8000000 		movl	$0, %eax
 240      00
 241 00d0 E8000000 		call	__printf_chk@PLT
 241      00
 242              	.LVL16:
 243              	.LBE75:
 244              	.LBE74:
  46:src/main.c    ****         printf(":");
 245              		.loc 1 46 0
 246 00d5 488B6C24 		movq	32(%rsp), %rbp
 246      20
 247 00da 488B7C24 		movq	48(%rsp), %rdi
 247      30
 248 00df 488B7424 		movq	56(%rsp), %rsi
 248      38
 249 00e4 FFD5     		call	*%rbp
 250              	.LVL17:
 251              	.LBB76:
 252              	.LBB77:
 253              		.loc 2 104 0
 254 00e6 BF3A0000 		movl	$58, %edi
 254      00
 255 00eb E8000000 		call	putchar@PLT
 255      00
 256              	.LVL18:
 257              	.LBE77:
 258              	.LBE76:
  48:src/main.c    ****         printf("\n\n");
 259              		.loc 1 48 0
 260 00f0 488B7C24 		movq	64(%rsp), %rdi
 260      40
 261 00f5 488B7424 		movq	72(%rsp), %rsi
 261      48
 262 00fa FFD5     		call	*%rbp
 263              	.LVL19:
 264              	.LBB78:
 265              	.LBB79:
 266              		.loc 2 104 0
 267 00fc 488D3D00 		leaq	.LC8(%rip), %rdi
 267      000000
GAS LISTING /tmp/cciFaveB.s 			page 12


 268 0103 E8000000 		call	puts@PLT
 268      00
 269              	.LVL20:
 270              	.L7:
 271              	.LBE79:
 272              	.LBE78:
 273              	.LBB80:
 274              	.LBB81:
 275 0108 488D3D00 		leaq	.LC10(%rip), %rdi
 275      000000
 276 010f E8000000 		call	puts@PLT
 276      00
 277              	.LVL21:
 278              	.LBE81:
 279              	.LBE80:
  56:src/main.c    **** 
 280              		.loc 1 56 0
 281 0114 FF742448 		pushq	72(%rsp)
 282              	.LCFI9:
 283              		.cfi_def_cfa_offset 200
 284 0118 FF742448 		pushq	72(%rsp)
 285              	.LCFI10:
 286              		.cfi_def_cfa_offset 208
 287 011c FF742448 		pushq	72(%rsp)
 288              	.LCFI11:
 289              		.cfi_def_cfa_offset 216
 290 0120 FF742448 		pushq	72(%rsp)
 291              	.LCFI12:
 292              		.cfi_def_cfa_offset 224
 293 0124 488D3D00 		leaq	.LC11(%rip), %rdi
 293      000000
 294 012b E8000000 		call	mcu_msg_is_cmd_att@PLT
 294      00
 295              	.LVL22:
 296 0130 4883C420 		addq	$32, %rsp
 297              	.LCFI13:
 298              		.cfi_def_cfa_offset 192
 299 0134 84C0     		testb	%al, %al
 300 0136 0F843A03 		je	.L14
 300      0000
 301 013c 488D1500 		leaq	.LC0(%rip), %rdx
 301      000000
 302              	.L8:
 303              	.LVL23:
 304              	.LBB82:
 305              	.LBB83:
 306              		.loc 2 104 0 discriminator 4
 307 0143 488D3500 		leaq	.LC12(%rip), %rsi
 307      000000
 308 014a BF010000 		movl	$1, %edi
 308      00
 309 014f B8000000 		movl	$0, %eax
 309      00
 310 0154 E8000000 		call	__printf_chk@PLT
 310      00
 311              	.LVL24:
 312              	.LBE83:
GAS LISTING /tmp/cciFaveB.s 			page 13


 313              	.LBE82:
 314              	.LBB84:
 315              	.LBB85:
 316 0159 488D3D00 		leaq	.LC13(%rip), %rdi
 316      000000
 317 0160 E8000000 		call	puts@PLT
 317      00
 318              	.LVL25:
 319              	.LBE85:
 320              	.LBE84:
  59:src/main.c    **** 
 321              		.loc 1 59 0 discriminator 4
 322 0165 FF742448 		pushq	72(%rsp)
 323              	.LCFI14:
 324              		.cfi_def_cfa_offset 200
 325 0169 FF742448 		pushq	72(%rsp)
 326              	.LCFI15:
 327              		.cfi_def_cfa_offset 208
 328 016d FF742448 		pushq	72(%rsp)
 329              	.LCFI16:
 330              		.cfi_def_cfa_offset 216
 331 0171 FF742448 		pushq	72(%rsp)
 332              	.LCFI17:
 333              		.cfi_def_cfa_offset 224
 334 0175 488D3D00 		leaq	.LC14(%rip), %rdi
 334      000000
 335 017c E8000000 		call	mcu_msg_is_cmd_att@PLT
 335      00
 336              	.LVL26:
 337 0181 4883C420 		addq	$32, %rsp
 338              	.LCFI18:
 339              		.cfi_def_cfa_offset 192
 340 0185 84C0     		testb	%al, %al
 341 0187 0F84F502 		je	.L15
 341      0000
  59:src/main.c    **** 
 342              		.loc 1 59 0 is_stmt 0
 343 018d 488D1500 		leaq	.LC0(%rip), %rdx
 343      000000
 344              	.L9:
 345              	.LVL27:
 346              	.LBB86:
 347              	.LBB87:
 348              		.loc 2 104 0 is_stmt 1 discriminator 4
 349 0194 488D3500 		leaq	.LC12(%rip), %rsi
 349      000000
 350 019b BF010000 		movl	$1, %edi
 350      00
 351 01a0 B8000000 		movl	$0, %eax
 351      00
 352 01a5 E8000000 		call	__printf_chk@PLT
 352      00
 353              	.LVL28:
 354              	.LBE87:
 355              	.LBE86:
 356              	.LBB88:
 357              	.LBB89:
GAS LISTING /tmp/cciFaveB.s 			page 14


 358 01aa 488D3D00 		leaq	.LC15(%rip), %rdi
 358      000000
 359 01b1 E8000000 		call	puts@PLT
 359      00
 360              	.LVL29:
 361              	.LBE89:
 362              	.LBE88:
  62:src/main.c    **** 
 363              		.loc 1 62 0 discriminator 4
 364 01b6 FF742448 		pushq	72(%rsp)
 365              	.LCFI19:
 366              		.cfi_def_cfa_offset 200
 367 01ba FF742448 		pushq	72(%rsp)
 368              	.LCFI20:
 369              		.cfi_def_cfa_offset 208
 370 01be FF742448 		pushq	72(%rsp)
 371              	.LCFI21:
 372              		.cfi_def_cfa_offset 216
 373 01c2 FF742448 		pushq	72(%rsp)
 374              	.LCFI22:
 375              		.cfi_def_cfa_offset 224
 376 01c6 488D3D00 		leaq	.LC16(%rip), %rdi
 376      000000
 377 01cd E8000000 		call	mcu_msg_is_cmd_att@PLT
 377      00
 378              	.LVL30:
 379 01d2 4883C420 		addq	$32, %rsp
 380              	.LCFI23:
 381              		.cfi_def_cfa_offset 192
 382 01d6 84C0     		testb	%al, %al
 383 01d8 0F84B002 		je	.L16
 383      0000
  62:src/main.c    **** 
 384              		.loc 1 62 0 is_stmt 0
 385 01de 488D1500 		leaq	.LC0(%rip), %rdx
 385      000000
 386              	.L10:
 387              	.LVL31:
 388              	.LBB90:
 389              	.LBB91:
 390              		.loc 2 104 0 is_stmt 1 discriminator 4
 391 01e5 488D3500 		leaq	.LC12(%rip), %rsi
 391      000000
 392 01ec BF010000 		movl	$1, %edi
 392      00
 393 01f1 B8000000 		movl	$0, %eax
 393      00
 394 01f6 E8000000 		call	__printf_chk@PLT
 394      00
 395              	.LVL32:
 396              	.LBE91:
 397              	.LBE90:
 398              	.LBB92:
 399              	.LBB93:
 400 01fb 488D3D00 		leaq	.LC17(%rip), %rdi
 400      000000
 401 0202 E8000000 		call	puts@PLT
GAS LISTING /tmp/cciFaveB.s 			page 15


 401      00
 402              	.LVL33:
 403              	.LBE93:
 404              	.LBE92:
  66:src/main.c    ****     printf("obj1.id_len: %d obj1.content_len: %d\n", obj1.id.len, obj1.content.len);
 405              		.loc 1 66 0 discriminator 4
 406 0207 488D7C24 		leaq	80(%rsp), %rdi
 406      50
 407 020c FF742448 		pushq	72(%rsp)
 408              	.LCFI24:
 409              		.cfi_def_cfa_offset 200
 410 0210 FF742448 		pushq	72(%rsp)
 411              	.LCFI25:
 412              		.cfi_def_cfa_offset 208
 413 0214 FF742448 		pushq	72(%rsp)
 414              	.LCFI26:
 415              		.cfi_def_cfa_offset 216
 416 0218 FF742448 		pushq	72(%rsp)
 417              	.LCFI27:
 418              		.cfi_def_cfa_offset 224
 419 021c 488D3500 		leaq	.LC18(%rip), %rsi
 419      000000
 420 0223 E8000000 		call	mcu_msg_parser_get_obj@PLT
 420      00
 421              	.LVL34:
  67:src/main.c    ****     str_hnd.print(obj1.id); printf(":"); str_hnd.print(obj1.content);
 422              		.loc 1 67 0 discriminator 4
 423 0228 0FB78C24 		movzwl	136(%rsp), %ecx
 423      88000000 
 424 0230 0FB75424 		movzwl	120(%rsp), %edx
 424      78
 425              	.LVL35:
 426              	.LBB94:
 427              	.LBB95:
 428              		.loc 2 104 0 discriminator 4
 429 0235 4883C420 		addq	$32, %rsp
 430              	.LCFI28:
 431              		.cfi_def_cfa_offset 192
 432 0239 488D3500 		leaq	.LC19(%rip), %rsi
 432      000000
 433 0240 BF010000 		movl	$1, %edi
 433      00
 434 0245 B8000000 		movl	$0, %eax
 434      00
 435 024a E8000000 		call	__printf_chk@PLT
 435      00
 436              	.LVL36:
 437              	.LBE95:
 438              	.LBE94:
  68:src/main.c    ****     printf("\n\n");
 439              		.loc 1 68 0 discriminator 4
 440 024f 488B6C24 		movq	32(%rsp), %rbp
 440      20
 441 0254 488B7C24 		movq	80(%rsp), %rdi
 441      50
 442 0259 488B7424 		movq	88(%rsp), %rsi
 442      58
GAS LISTING /tmp/cciFaveB.s 			page 16


 443 025e FFD5     		call	*%rbp
 444              	.LVL37:
 445              	.LBB96:
 446              	.LBB97:
 447              		.loc 2 104 0 discriminator 4
 448 0260 BF3A0000 		movl	$58, %edi
 448      00
 449 0265 E8000000 		call	putchar@PLT
 449      00
 450              	.LVL38:
 451              	.LBE97:
 452              	.LBE96:
  68:src/main.c    ****     printf("\n\n");
 453              		.loc 1 68 0 discriminator 4
 454 026a 488B7C24 		movq	96(%rsp), %rdi
 454      60
 455 026f 488B7424 		movq	104(%rsp), %rsi
 455      68
 456 0274 FFD5     		call	*%rbp
 457              	.LVL39:
 458              	.LBB98:
 459              	.LBB99:
 460              		.loc 2 104 0 discriminator 4
 461 0276 488D3D00 		leaq	.LC8(%rip), %rdi
 461      000000
 462 027d E8000000 		call	puts@PLT
 462      00
 463              	.LVL40:
 464              	.LBE99:
 465              	.LBE98:
 466              	.LBB100:
 467              	.LBB101:
 468 0282 488D3D00 		leaq	.LC20(%rip), %rdi
 468      000000
 469 0289 E8000000 		call	puts@PLT
 469      00
 470              	.LVL41:
 471              	.LBE101:
 472              	.LBE100:
  73:src/main.c    ****     printf("obj2.id_len: %d obj2.content_len: %d\n", obj2.id.len, obj2.content.len);
 473              		.loc 1 73 0 discriminator 4
 474 028e 488D7C24 		leaq	112(%rsp), %rdi
 474      70
 475 0293 FF742448 		pushq	72(%rsp)
 476              	.LCFI29:
 477              		.cfi_def_cfa_offset 200
 478 0297 FF742448 		pushq	72(%rsp)
 479              	.LCFI30:
 480              		.cfi_def_cfa_offset 208
 481 029b FF742448 		pushq	72(%rsp)
 482              	.LCFI31:
 483              		.cfi_def_cfa_offset 216
 484 029f FF742448 		pushq	72(%rsp)
 485              	.LCFI32:
 486              		.cfi_def_cfa_offset 224
 487 02a3 488D3500 		leaq	.LC21(%rip), %rsi
 487      000000
GAS LISTING /tmp/cciFaveB.s 			page 17


 488 02aa E8000000 		call	mcu_msg_parser_get_obj@PLT
 488      00
 489              	.LVL42:
  74:src/main.c    ****     str_hnd.print(obj2.id); printf(":"); str_hnd.print(obj2.content);
 490              		.loc 1 74 0 discriminator 4
 491 02af 0FB78C24 		movzwl	168(%rsp), %ecx
 491      A8000000 
 492 02b7 0FB79424 		movzwl	152(%rsp), %edx
 492      98000000 
 493              	.LVL43:
 494              	.LBB102:
 495              	.LBB103:
 496              		.loc 2 104 0 discriminator 4
 497 02bf 4883C420 		addq	$32, %rsp
 498              	.LCFI33:
 499              		.cfi_def_cfa_offset 192
 500 02c3 488D3500 		leaq	.LC22(%rip), %rsi
 500      000000
 501 02ca BF010000 		movl	$1, %edi
 501      00
 502 02cf B8000000 		movl	$0, %eax
 502      00
 503 02d4 E8000000 		call	__printf_chk@PLT
 503      00
 504              	.LVL44:
 505              	.LBE103:
 506              	.LBE102:
  75:src/main.c    ****     printf("\n\n");
 507              		.loc 1 75 0 discriminator 4
 508 02d9 488B7C24 		movq	112(%rsp), %rdi
 508      70
 509 02de 488B7424 		movq	120(%rsp), %rsi
 509      78
 510 02e3 FFD5     		call	*%rbp
 511              	.LVL45:
 512              	.LBB104:
 513              	.LBB105:
 514              		.loc 2 104 0 discriminator 4
 515 02e5 BF3A0000 		movl	$58, %edi
 515      00
 516 02ea E8000000 		call	putchar@PLT
 516      00
 517              	.LVL46:
 518              	.LBE105:
 519              	.LBE104:
  75:src/main.c    ****     printf("\n\n");
 520              		.loc 1 75 0 discriminator 4
 521 02ef 488BBC24 		movq	128(%rsp), %rdi
 521      80000000 
 522 02f7 488BB424 		movq	136(%rsp), %rsi
 522      88000000 
 523 02ff FFD5     		call	*%rbp
 524              	.LVL47:
 525              	.LBB106:
 526              	.LBB107:
 527              		.loc 2 104 0 discriminator 4
 528 0301 488D3D00 		leaq	.LC8(%rip), %rdi
GAS LISTING /tmp/cciFaveB.s 			page 18


 528      000000
 529 0308 E8000000 		call	puts@PLT
 529      00
 530              	.LVL48:
 531              	.LBE107:
 532              	.LBE106:
 533              	.LBB108:
 534              	.LBB109:
 535 030d 488D3D00 		leaq	.LC23(%rip), %rdi
 535      000000
 536 0314 E8000000 		call	puts@PLT
 536      00
 537              	.LVL49:
 538              	.LBE109:
 539              	.LBE108:
  80:src/main.c    ****     float fval = 0.0;
 540              		.loc 1 80 0 discriminator 4
 541 0319 C7442408 		movl	$0, 8(%rsp)
 541      00000000 
  81:src/main.c    ****     res = mcu_msg_parser_get_int(&ival, obj1, "key11");
 542              		.loc 1 81 0 discriminator 4
 543 0321 C744240C 		movl	$0x00000000, 12(%rsp)
 543      00000000 
  82:src/main.c    ****     printf("r = %d ival = %d\n\n", res, ival);
 544              		.loc 1 82 0 discriminator 4
 545 0329 488D7C24 		leaq	8(%rsp), %rdi
 545      08
 546 032e FF742468 		pushq	104(%rsp)
 547              	.LCFI34:
 548              		.cfi_def_cfa_offset 200
 549 0332 FF742468 		pushq	104(%rsp)
 550              	.LCFI35:
 551              		.cfi_def_cfa_offset 208
 552 0336 FF742468 		pushq	104(%rsp)
 553              	.LCFI36:
 554              		.cfi_def_cfa_offset 216
 555 033a FF742468 		pushq	104(%rsp)
 556              	.LCFI37:
 557              		.cfi_def_cfa_offset 224
 558 033e 488D3500 		leaq	.LC25(%rip), %rsi
 558      000000
 559 0345 E8000000 		call	mcu_msg_parser_get_int@PLT
 559      00
 560              	.LVL50:
 561 034a 0FBED0   		movsbl	%al, %edx
 562              	.LVL51:
 563              	.LBB110:
 564              	.LBB111:
 565              		.loc 2 104 0 discriminator 4
 566 034d 4883C420 		addq	$32, %rsp
 567              	.LCFI38:
 568              		.cfi_def_cfa_offset 192
 569 0351 8B4C2408 		movl	8(%rsp), %ecx
 570 0355 488D3500 		leaq	.LC26(%rip), %rsi
 570      000000
 571 035c BF010000 		movl	$1, %edi
 571      00
GAS LISTING /tmp/cciFaveB.s 			page 19


 572 0361 B8000000 		movl	$0, %eax
 572      00
 573 0366 E8000000 		call	__printf_chk@PLT
 573      00
 574              	.LVL52:
 575              	.LBE111:
 576              	.LBE110:
 577              	.LBB112:
 578              	.LBB113:
 579 036b 488D3D00 		leaq	.LC27(%rip), %rdi
 579      000000
 580 0372 E8000000 		call	puts@PLT
 580      00
 581              	.LVL53:
 582              	.LBE113:
 583              	.LBE112:
  87:src/main.c    ****     printf("r = %d fval = %.11f\n\n", res, fval);
 584              		.loc 1 87 0 discriminator 4
 585 0377 488D7C24 		leaq	12(%rsp), %rdi
 585      0C
 586 037c FFB42488 		pushq	136(%rsp)
 586      000000
 587              	.LCFI39:
 588              		.cfi_def_cfa_offset 200
 589 0383 FFB42488 		pushq	136(%rsp)
 589      000000
 590              	.LCFI40:
 591              		.cfi_def_cfa_offset 208
 592 038a FFB42488 		pushq	136(%rsp)
 592      000000
 593              	.LCFI41:
 594              		.cfi_def_cfa_offset 216
 595 0391 FFB42488 		pushq	136(%rsp)
 595      000000
 596              	.LCFI42:
 597              		.cfi_def_cfa_offset 224
 598 0398 488D3500 		leaq	.LC28(%rip), %rsi
 598      000000
 599 039f E8000000 		call	mcu_msg_parser_get_float@PLT
 599      00
 600              	.LVL54:
 601 03a4 0FBED0   		movsbl	%al, %edx
 602              	.LVL55:
  88:src/main.c    **** 
 603              		.loc 1 88 0 discriminator 4
 604 03a7 660FEFC0 		pxor	%xmm0, %xmm0
 605 03ab F30F5A44 		cvtss2sd	44(%rsp), %xmm0
 605      242C
 606              	.LVL56:
 607              	.LBB114:
 608              	.LBB115:
 609              		.loc 2 104 0 discriminator 4
 610 03b1 4883C420 		addq	$32, %rsp
 611              	.LCFI43:
 612              		.cfi_def_cfa_offset 192
 613 03b5 488D3500 		leaq	.LC29(%rip), %rsi
 613      000000
GAS LISTING /tmp/cciFaveB.s 			page 20


 614 03bc BF010000 		movl	$1, %edi
 614      00
 615 03c1 B8010000 		movl	$1, %eax
 615      00
 616 03c6 E8000000 		call	__printf_chk@PLT
 616      00
 617              	.LVL57:
 618              	.LBE115:
 619              	.LBE114:
 620              	.LBB116:
 621              	.LBB117:
 622 03cb 488D3D00 		leaq	.LC30(%rip), %rdi
 622      000000
 623 03d2 E8000000 		call	puts@PLT
 623      00
 624              	.LVL58:
 625              	.LBE117:
 626              	.LBE116:
  92:src/main.c    ****     if(str.s != NULL) {
 627              		.loc 1 92 0 discriminator 4
 628 03d7 FF742468 		pushq	104(%rsp)
 629              	.LCFI44:
 630              		.cfi_def_cfa_offset 200
 631 03db FF742468 		pushq	104(%rsp)
 632              	.LCFI45:
 633              		.cfi_def_cfa_offset 208
 634 03df FF742468 		pushq	104(%rsp)
 635              	.LCFI46:
 636              		.cfi_def_cfa_offset 216
 637 03e3 FF742468 		pushq	104(%rsp)
 638              	.LCFI47:
 639              		.cfi_def_cfa_offset 224
 640 03e7 488D3D00 		leaq	.LC31(%rip), %rdi
 640      000000
 641 03ee E8000000 		call	mcu_msg_parser_get_string@PLT
 641      00
 642              	.LVL59:
  93:src/main.c    ****         str_hnd.print(str); printf("\n\n");
 643              		.loc 1 93 0 discriminator 4
 644 03f3 4883C420 		addq	$32, %rsp
 645              	.LCFI48:
 646              		.cfi_def_cfa_offset 192
 647              	.LVL60:
 648 03f7 4885C0   		testq	%rax, %rax
 649 03fa 0F849A00 		je	.L11
 649      0000
  94:src/main.c    ****     } else {
 650              		.loc 1 94 0
 651 0400 4889C7   		movq	%rax, %rdi
 652              	.LVL61:
 653 0403 4889D6   		movq	%rdx, %rsi
 654 0406 FFD5     		call	*%rbp
 655              	.LVL62:
 656              	.LBB118:
 657              	.LBB119:
 658              		.loc 2 104 0
 659 0408 488D3D00 		leaq	.LC8(%rip), %rdi
GAS LISTING /tmp/cciFaveB.s 			page 21


 659      000000
 660 040f E8000000 		call	puts@PLT
 660      00
 661              	.LVL63:
 662              	.L12:
 663              	.LBE119:
 664              	.LBE118:
  99:src/main.c    **** 
 665              		.loc 1 99 0
 666 0414 E8000000 		call	clock@PLT
 666      00
 667              	.LVL64:
 101:src/main.c    **** 
 668              		.loc 1 101 0
 669 0419 4829D8   		subq	%rbx, %rax
 670              	.LVL65:
 671 041c 660FEFC0 		pxor	%xmm0, %xmm0
 672 0420 F2480F2A 		cvtsi2sdq	%rax, %xmm0
 672      C0
 673 0425 F20F5E05 		divsd	.LC33(%rip), %xmm0
 673      00000000 
 674              	.LVL66:
 675              	.LBB120:
 676              	.LBB121:
 677              		.loc 2 104 0
 678 042d 488D3500 		leaq	.LC34(%rip), %rsi
 678      000000
 679 0434 BF010000 		movl	$1, %edi
 679      00
 680 0439 B8010000 		movl	$1, %eax
 680      00
 681 043e E8000000 		call	__printf_chk@PLT
 681      00
 682              	.LVL67:
 683              	.LBE121:
 684              	.LBE120:
 105:src/main.c    **** 
 685              		.loc 1 105 0
 686 0443 B8000000 		movl	$0, %eax
 686      00
 687 0448 488B9C24 		movq	152(%rsp), %rbx
 687      98000000 
 688 0450 6448331C 		xorq	%fs:40, %rbx
 688      25280000 
 688      00
 689              	.LVL68:
 690 0459 7550     		jne	.L18
 691 045b 4881C4A8 		addq	$168, %rsp
 691      000000
 692              	.LCFI49:
 693              		.cfi_remember_state
 694              		.cfi_def_cfa_offset 24
 695 0462 5B       		popq	%rbx
 696              	.LCFI50:
 697              		.cfi_def_cfa_offset 16
 698 0463 5D       		popq	%rbp
 699              	.LCFI51:
GAS LISTING /tmp/cciFaveB.s 			page 22


 700              		.cfi_def_cfa_offset 8
 701 0464 C3       		ret
 702              	.LVL69:
 703              	.L6:
 704              	.LCFI52:
 705              		.cfi_restore_state
 706              	.LBB122:
 707              	.LBB123:
 708              		.loc 2 104 0
 709 0465 488D3D00 		leaq	.LC9(%rip), %rdi
 709      000000
 710 046c E8000000 		call	puts@PLT
 710      00
 711              	.LVL70:
 712 0471 E992FCFF 		jmp	.L7
 712      FF
 713              	.LVL71:
 714              	.L14:
 715              	.LBE123:
 716              	.LBE122:
  56:src/main.c    **** 
 717              		.loc 1 56 0
 718 0476 488D1500 		leaq	.LC1(%rip), %rdx
 718      000000
 719 047d E9C1FCFF 		jmp	.L8
 719      FF
 720              	.L15:
  59:src/main.c    **** 
 721              		.loc 1 59 0
 722 0482 488D1500 		leaq	.LC1(%rip), %rdx
 722      000000
 723 0489 E906FDFF 		jmp	.L9
 723      FF
 724              	.L16:
  62:src/main.c    **** 
 725              		.loc 1 62 0
 726 048e 488D1500 		leaq	.LC1(%rip), %rdx
 726      000000
 727 0495 E94BFDFF 		jmp	.L10
 727      FF
 728              	.L11:
 729              	.LVL72:
 730              	.LBB124:
 731              	.LBB125:
 732              		.loc 2 104 0
 733 049a 488D3D00 		leaq	.LC32(%rip), %rdi
 733      000000
 734 04a1 E8000000 		call	puts@PLT
 734      00
 735              	.LVL73:
 736 04a6 E969FFFF 		jmp	.L12
 736      FF
 737              	.LVL74:
 738              	.L18:
 739              	.LBE125:
 740              	.LBE124:
 105:src/main.c    **** 
GAS LISTING /tmp/cciFaveB.s 			page 23


 741              		.loc 1 105 0
 742 04ab E8000000 		call	__stack_chk_fail@PLT
 742      00
 743              	.LVL75:
 744              		.cfi_endproc
 745              	.LFE56:
 747              		.globl	test_str1
 748              		.section	.rodata.str1.8,"aMS",@progbits,1
 749              		.align 8
 750              	.LC35:
 751 0000 23746573 		.string	"#test_msg{<CMD1>\t\t @obj1($key11 =\t-1123334567  ; $key12 = 'string \"value\"')\n\r@obj2
 751      745F6D73 
 751      677B3C43 
 751      4D44313E 
 751      09092040 
 752              		.section	.data.rel.local.test_str1,"aw",@progbits
 753              		.align 8
 756              	test_str1:
 757 0000 00000000 		.quad	.LC35
 757      00000000 
 758              		.section	.rodata.cst8,"aM",@progbits,8
 759              		.align 8
 760              	.LC33:
 761 0000 00000000 		.long	0
 762 0004 80842E41 		.long	1093567616
 763              		.text
 764              	.Letext0:
 765              		.file 3 "/usr/lib/gcc/x86_64-linux-gnu/7/include/stddef.h"
 766              		.file 4 "/usr/include/x86_64-linux-gnu/bits/types.h"
 767              		.file 5 "/usr/include/x86_64-linux-gnu/bits/libio.h"
 768              		.file 6 "/usr/include/stdio.h"
 769              		.file 7 "/usr/include/x86_64-linux-gnu/bits/sys_errlist.h"
 770              		.file 8 "/usr/include/x86_64-linux-gnu/bits/types/clock_t.h"
 771              		.file 9 "/usr/include/time.h"
 772              		.file 10 "/usr/include/x86_64-linux-gnu/bits/stdint-uintn.h"
 773              		.file 11 "inc/mcu_msg_cfg.h"
 774              		.file 12 "inc/mcu_msg.h"
 775              		.file 13 "<built-in>"
GAS LISTING /tmp/cciFaveB.s 			page 24

